target datalayout = "e-m:e-p270:32:32-p271:32:32-p272:64:64-i64:64-i128:128-f80:128-n8:16:32:64-S128"
target triple = "x86_64-pc-linux-gnu"

%struct._lv_global_t = type { i8, i8, %struct.lv_ll_t, ptr, ptr, %struct.lv_ll_t, i8, i32, i32, ptr, %struct.lv_ll_t, ptr, %struct.lv_ll_t, ptr, ptr, i32, ptr, i8, i32, i32, ptr, i32, %struct.lv_timer_state_t, %struct.lv_anim_state_t, %struct.lv_tick_state_t, %struct._lv_draw_buf_handlers_t, %struct._lv_draw_buf_handlers_t, %struct._lv_draw_buf_handlers_t, %struct.lv_ll_t, ptr, ptr, %struct.lv_draw_global_info_t, [4 x %struct.lv_draw_sw_mask_radius_circle_dsc_t], ptr, ptr, ptr, %struct.lv_tlsf_state_t, %struct.lv_ll_t, ptr, ptr, %struct.lv_style_t, i64, ptr, i32, ptr }
%struct.lv_timer_state_t = type { %struct.lv_ll_t, i8, i8, i8, i8, i32, i8, i32, i32, i32, i32, ptr, ptr }
%struct.lv_anim_state_t = type { i8, i8, ptr, %struct.lv_ll_t }
%struct.lv_tick_state_t = type { i32, i8, ptr, ptr }
%struct._lv_draw_buf_handlers_t = type { ptr, ptr, ptr, ptr, ptr, ptr }
%struct.lv_draw_global_info_t = type { ptr, i32, i32, i32, i32, i8 }
%struct.lv_draw_sw_mask_radius_circle_dsc_t = type { ptr, ptr, ptr, ptr, i32, i32, i32 }
%struct.lv_tlsf_state_t = type { ptr, i64, i64, %struct.lv_ll_t }
%struct.lv_ll_t = type { i32, ptr, ptr }
%struct.lv_style_t = type { ptr, i32, i8 }
%struct._lv_display_t = type { i32, i32, i32, i32, i32, i32, i32, ptr, ptr, ptr, ptr, ptr, i32, i32, i8, i32, i16, i32, [32 x %struct.lv_area_t], [32 x i8], i32, i32, %struct.lv_ll_t, %struct._lv_draw_buf_t, %struct._lv_draw_buf_t, ptr, ptr, ptr, ptr, ptr, ptr, ptr, ptr, ptr, ptr, i32, i8, ptr, ptr, %struct.lv_event_list_t, i8, ptr, ptr, i32, %struct.lv_area_t }
%struct._lv_draw_buf_t = type { %struct.lv_image_header_t, i32, ptr, ptr, ptr }
%struct.lv_image_header_t = type <{ i64, i32 }>
%struct.lv_event_list_t = type { %struct._lv_array_t, i8 }
%struct._lv_array_t = type { ptr, i32, i32, i32, i8 }
%struct.lv_area_t = type { i32, i32, i32, i32 }

@lv_global = external global %struct._lv_global_t, align 8

; Function Attrs: nounwind uwtable
define ptr @lv_display_get_default() #0 {
  %1 = load ptr, ptr getelementptr inbounds nuw (%struct._lv_global_t, ptr @lv_global, i32 0, i32 4), align 8, !tbaa !35
  ret ptr %1
}

; Function Attrs: nounwind uwtable
define void @lv_display_set_render_mode(ptr noundef %0, i32 noundef %1) #0 {
  %3 = alloca ptr, align 8
  %4 = alloca i32, align 4
  store ptr %0, ptr %3, align 8, !tbaa !7
  store i32 %1, ptr %4, align 4, !tbaa !3
  %5 = load ptr, ptr %3, align 8, !tbaa !7
  %6 = icmp eq ptr %5, null
  br i1 %6, label %7, label %9

7:                                                ; preds = %2
  %8 = call ptr @lv_display_get_default()
  store ptr %8, ptr %3, align 8, !tbaa !7
  br label %9

9:                                                ; preds = %7, %2
  %10 = load ptr, ptr %3, align 8, !tbaa !7
  %11 = icmp eq ptr %10, null
  br i1 %11, label %12, label %13

12:                                               ; preds = %9
  br label %17

13:                                               ; preds = %9
  %14 = load i32, ptr %4, align 4, !tbaa !3
  %15 = load ptr, ptr %3, align 8, !tbaa !7
  %16 = getelementptr inbounds nuw %struct._lv_display_t, ptr %15, i32 0, i32 15
  store i32 %14, ptr %16, align 4, !tbaa !71
  br label %17

17:                                               ; preds = %13, %12
  ret void
}

; Function Attrs: nounwind uwtable
define void @lv_display_set_draw_buffers(ptr noundef %0, ptr noundef %1, ptr noundef %2) #0 {
  %4 = alloca ptr, align 8
  %5 = alloca ptr, align 8
  %6 = alloca ptr, align 8
  store ptr %0, ptr %4, align 8, !tbaa !7
  store ptr %1, ptr %5, align 8, !tbaa !7
  store ptr %2, ptr %6, align 8, !tbaa !7
  %7 = load ptr, ptr %4, align 8, !tbaa !7
  %8 = icmp eq ptr %7, null
  br i1 %8, label %9, label %11

9:                                                ; preds = %3
  %10 = call ptr @lv_display_get_default()
  store ptr %10, ptr %4, align 8, !tbaa !7
  br label %11

11:                                               ; preds = %9, %3
  %12 = load ptr, ptr %4, align 8, !tbaa !7
  %13 = icmp eq ptr %12, null
  br i1 %13, label %14, label %15

14:                                               ; preds = %11
  br label %27

15:                                               ; preds = %11
  %16 = load ptr, ptr %5, align 8, !tbaa !7
  %17 = load ptr, ptr %4, align 8, !tbaa !7
  %18 = getelementptr inbounds nuw %struct._lv_display_t, ptr %17, i32 0, i32 7
  store ptr %16, ptr %18, align 8, !tbaa !68
  %19 = load ptr, ptr %6, align 8, !tbaa !7
  %20 = load ptr, ptr %4, align 8, !tbaa !7
  %21 = getelementptr inbounds nuw %struct._lv_display_t, ptr %20, i32 0, i32 8
  store ptr %19, ptr %21, align 8, !tbaa !69
  %22 = load ptr, ptr %4, align 8, !tbaa !7
  %23 = getelementptr inbounds nuw %struct._lv_display_t, ptr %22, i32 0, i32 7
  %24 = load ptr, ptr %23, align 8, !tbaa !68
  %25 = load ptr, ptr %4, align 8, !tbaa !7
  %26 = getelementptr inbounds nuw %struct._lv_display_t, ptr %25, i32 0, i32 9
  store ptr %24, ptr %26, align 8, !tbaa !70
  br label %27

27:                                               ; preds = %15, %14
  ret void
}

; Function Attrs: nounwind uwtable
define i32 @lv_display_get_vertical_resolution(ptr noundef %0) #0 {
  %2 = alloca i32, align 4
  %3 = alloca ptr, align 8
  store ptr %0, ptr %3, align 8, !tbaa !7
  %4 = load ptr, ptr %3, align 8, !tbaa !7
  %5 = icmp eq ptr %4, null
  br i1 %5, label %6, label %8

6:                                                ; preds = %1
  %7 = call ptr @lv_display_get_default()
  store ptr %7, ptr %3, align 8, !tbaa !7
  br label %8

8:                                                ; preds = %6, %1
  %9 = load ptr, ptr %3, align 8, !tbaa !7
  %10 = icmp eq ptr %9, null
  br i1 %10, label %11, label %12

11:                                               ; preds = %8
  store i32 0, ptr %2, align 4
  br label %26

12:                                               ; preds = %8
  %13 = load ptr, ptr %3, align 8, !tbaa !7
  %14 = getelementptr inbounds nuw %struct._lv_display_t, ptr %13, i32 0, i32 40
  %15 = load i8, ptr %14, align 8
  %16 = and i8 %15, 7
  %17 = zext i8 %16 to i32
  switch i32 %17, label %22 [
    i32 1, label %18
    i32 3, label %18
  ]

18:                                               ; preds = %12, %12
  %19 = load ptr, ptr %3, align 8, !tbaa !7
  %20 = getelementptr inbounds nuw %struct._lv_display_t, ptr %19, i32 0, i32 0
  %21 = load i32, ptr %20, align 8, !tbaa !9
  store i32 %21, ptr %2, align 4
  br label %26

22:                                               ; preds = %12
  %23 = load ptr, ptr %3, align 8, !tbaa !7
  %24 = getelementptr inbounds nuw %struct._lv_display_t, ptr %23, i32 0, i32 1
  %25 = load i32, ptr %24, align 4, !tbaa !18
  store i32 %25, ptr %2, align 4
  br label %26

26:                                               ; preds = %22, %18, %11
  %27 = load i32, ptr %2, align 4
  ret i32 %27
}

; Function Attrs: nounwind uwtable
define i32 @lv_display_get_horizontal_resolution(ptr noundef %0) #0 {
  %2 = alloca i32, align 4
  %3 = alloca ptr, align 8
  store ptr %0, ptr %3, align 8, !tbaa !7
  %4 = load ptr, ptr %3, align 8, !tbaa !7
  %5 = icmp eq ptr %4, null
  br i1 %5, label %6, label %8

6:                                                ; preds = %1
  %7 = call ptr @lv_display_get_default()
  store ptr %7, ptr %3, align 8, !tbaa !7
  br label %8

8:                                                ; preds = %6, %1
  %9 = load ptr, ptr %3, align 8, !tbaa !7
  %10 = icmp eq ptr %9, null
  br i1 %10, label %11, label %12

11:                                               ; preds = %8
  store i32 0, ptr %2, align 4
  br label %26

12:                                               ; preds = %8
  %13 = load ptr, ptr %3, align 8, !tbaa !7
  %14 = getelementptr inbounds nuw %struct._lv_display_t, ptr %13, i32 0, i32 40
  %15 = load i8, ptr %14, align 8
  %16 = and i8 %15, 7
  %17 = zext i8 %16 to i32
  switch i32 %17, label %22 [
    i32 1, label %18
    i32 3, label %18
  ]

18:                                               ; preds = %12, %12
  %19 = load ptr, ptr %3, align 8, !tbaa !7
  %20 = getelementptr inbounds nuw %struct._lv_display_t, ptr %19, i32 0, i32 1
  %21 = load i32, ptr %20, align 4, !tbaa !18
  store i32 %21, ptr %2, align 4
  br label %26

22:                                               ; preds = %12
  %23 = load ptr, ptr %3, align 8, !tbaa !7
  %24 = getelementptr inbounds nuw %struct._lv_display_t, ptr %23, i32 0, i32 0
  %25 = load i32, ptr %24, align 8, !tbaa !9
  store i32 %25, ptr %2, align 4
  br label %26

26:                                               ; preds = %22, %18, %11
  %27 = load i32, ptr %2, align 4
  ret i32 %27
}

; Function Attrs: nounwind uwtable
define i32 @lv_display_get_color_format(ptr noundef %0) #0 {
  %2 = alloca i32, align 4
  %3 = alloca ptr, align 8
  store ptr %0, ptr %3, align 8, !tbaa !7
  %4 = load ptr, ptr %3, align 8, !tbaa !7
  %5 = icmp eq ptr %4, null
  br i1 %5, label %6, label %8

6:                                                ; preds = %1
  %7 = call ptr @lv_display_get_default()
  store ptr %7, ptr %3, align 8, !tbaa !7
  br label %8

8:                                                ; preds = %6, %1
  %9 = load ptr, ptr %3, align 8, !tbaa !7
  %10 = icmp eq ptr %9, null
  br i1 %10, label %11, label %12

11:                                               ; preds = %8
  store i32 0, ptr %2, align 4
  br label %16

12:                                               ; preds = %8
  %13 = load ptr, ptr %3, align 8, !tbaa !7
  %14 = getelementptr inbounds nuw %struct._lv_display_t, ptr %13, i32 0, i32 17
  %15 = load i32, ptr %14, align 4, !tbaa !24
  store i32 %15, ptr %2, align 4
  br label %16

16:                                               ; preds = %12, %11
  %17 = load i32, ptr %2, align 4
  ret i32 %17
}

; Function Attrs: nounwind uwtable
define void @lv_display_set_buffers(ptr noundef %0, ptr noundef %1, ptr noundef %2, i32 noundef %3, i32 noundef %4) #0 {
  %6 = alloca ptr, align 8
  %7 = alloca ptr, align 8
  %8 = alloca ptr, align 8
  %9 = alloca i32, align 4
  %10 = alloca i32, align 4
  %11 = alloca i32, align 4
  %12 = alloca i32, align 4
  %13 = alloca i32, align 4
  %14 = alloca i32, align 4
  store ptr %0, ptr %6, align 8, !tbaa !7
  store ptr %1, ptr %7, align 8, !tbaa !7
  store ptr %2, ptr %8, align 8, !tbaa !7
  store i32 %3, ptr %9, align 4, !tbaa !3
  store i32 %4, ptr %10, align 4, !tbaa !3
  br label %15

15:                                               ; preds = %5
  %16 = load ptr, ptr %7, align 8, !tbaa !7
  %17 = icmp ne ptr %16, null
  br i1 %17, label %22, label %18

18:                                               ; preds = %15
  br label %19

19:                                               ; preds = %18
  br label %20

20:                                               ; preds = %19
  br label %21

21:                                               ; preds = %20, %21
  br label %21

22:                                               ; preds = %15
  br label %23

23:                                               ; preds = %22
  call void @llvm.lifetime.start.p0(i64 4, ptr %11) #5
  %24 = load ptr, ptr %6, align 8, !tbaa !7
  %25 = call i32 @lv_display_get_color_format(ptr noundef %24)
  store i32 %25, ptr %11, align 4, !tbaa !3
  call void @llvm.lifetime.start.p0(i64 4, ptr %12) #5
  %26 = load ptr, ptr %6, align 8, !tbaa !7
  %27 = call i32 @lv_display_get_horizontal_resolution(ptr noundef %26)
  store i32 %27, ptr %12, align 4, !tbaa !3
  call void @llvm.lifetime.start.p0(i64 4, ptr %13) #5
  %28 = load ptr, ptr %6, align 8, !tbaa !7
  %29 = call i32 @lv_display_get_vertical_resolution(ptr noundef %28)
  store i32 %29, ptr %13, align 4, !tbaa !3
  br label %30

30:                                               ; preds = %23
  %31 = load i32, ptr %12, align 4, !tbaa !3
  %32 = icmp ne i32 %31, 0
  br i1 %32, label %33, label %36

33:                                               ; preds = %30
  %34 = load i32, ptr %13, align 4, !tbaa !3
  %35 = icmp ne i32 %34, 0
  br i1 %35, label %42, label %36

36:                                               ; preds = %33, %30
  br label %37

37:                                               ; preds = %36
  br label %38

38:                                               ; preds = %37
  br label %39

39:                                               ; preds = %38
  br label %40

40:                                               ; preds = %41, %39
  br label %41

41:                                               ; preds = %40
  br label %40

42:                                               ; preds = %33
  br label %43

43:                                               ; preds = %42
  br label %44

44:                                               ; preds = %43
  br label %45

45:                                               ; preds = %44
  %46 = load ptr, ptr %7, align 8, !tbaa !7
  %47 = load ptr, ptr %7, align 8, !tbaa !7
  %48 = load i32, ptr %11, align 4, !tbaa !3
  %49 = call ptr @lv_draw_buf_align(ptr noundef %47, i32 noundef %48)
  %50 = icmp eq ptr %46, %49
  br i1 %50, label %57, label %51

51:                                               ; preds = %45
  br label %52

52:                                               ; preds = %51
  br label %53

53:                                               ; preds = %52
  br label %54

54:                                               ; preds = %53
  br label %55

55:                                               ; preds = %56, %54
  br label %56

56:                                               ; preds = %55
  br label %55

57:                                               ; preds = %45
  br label %58

58:                                               ; preds = %57
  br label %59

59:                                               ; preds = %58
  br label %60

60:                                               ; preds = %59
  %61 = load ptr, ptr %8, align 8, !tbaa !7
  %62 = icmp eq ptr %61, null
  br i1 %62, label %75, label %63

63:                                               ; preds = %60
  %64 = load ptr, ptr %8, align 8, !tbaa !7
  %65 = load ptr, ptr %8, align 8, !tbaa !7
  %66 = load i32, ptr %11, align 4, !tbaa !3
  %67 = call ptr @lv_draw_buf_align(ptr noundef %65, i32 noundef %66)
  %68 = icmp eq ptr %64, %67
  br i1 %68, label %75, label %69

69:                                               ; preds = %63
  br label %70

70:                                               ; preds = %69
  br label %71

71:                                               ; preds = %70
  br label %72

72:                                               ; preds = %71
  br label %73

73:                                               ; preds = %74, %72
  br label %74

74:                                               ; preds = %73
  br label %73

75:                                               ; preds = %63, %60
  br label %76

76:                                               ; preds = %75
  br label %77

77:                                               ; preds = %76
  call void @llvm.lifetime.start.p0(i64 4, ptr %14) #5
  %78 = load i32, ptr %12, align 4, !tbaa !3
  %79 = load i32, ptr %11, align 4, !tbaa !3
  %80 = call i32 @lv_draw_buf_width_to_stride(i32 noundef %78, i32 noundef %79)
  store i32 %80, ptr %14, align 4, !tbaa !3
  %81 = load i32, ptr %10, align 4, !tbaa !3
  %82 = icmp eq i32 %81, 0
  br i1 %82, label %83, label %99

83:                                               ; preds = %77
  %84 = load i32, ptr %9, align 4, !tbaa !3
  %85 = load i32, ptr %14, align 4, !tbaa !3
  %86 = udiv i32 %84, %85
  store i32 %86, ptr %13, align 4, !tbaa !3
  br label %87

87:                                               ; preds = %83
  %88 = load i32, ptr %13, align 4, !tbaa !3
  %89 = icmp ne i32 %88, 0
  br i1 %89, label %96, label %90

90:                                               ; preds = %87
  br label %91

91:                                               ; preds = %90
  br label %92

92:                                               ; preds = %91
  br label %93

93:                                               ; preds = %92
  br label %94

94:                                               ; preds = %95, %93
  br label %95

95:                                               ; preds = %94
  br label %94

96:                                               ; preds = %87
  br label %97

97:                                               ; preds = %96
  br label %98

98:                                               ; preds = %97
  br label %115

99:                                               ; preds = %77
  br label %100

100:                                              ; preds = %99
  %101 = load i32, ptr %14, align 4, !tbaa !3
  %102 = load i32, ptr %13, align 4, !tbaa !3
  %103 = mul i32 %101, %102
  %104 = load i32, ptr %9, align 4, !tbaa !3
  %105 = icmp ule i32 %103, %104
  br i1 %105, label %112, label %106

106:                                              ; preds = %100
  br label %107

107:                                              ; preds = %106
  br label %108

108:                                              ; preds = %107
  br label %109

109:                                              ; preds = %108
  br label %110

110:                                              ; preds = %111, %109
  br label %111

111:                                              ; preds = %110
  br label %110

112:                                              ; preds = %100
  br label %113

113:                                              ; preds = %112
  br label %114

114:                                              ; preds = %113
  br label %115

115:                                              ; preds = %114, %98
  %116 = load ptr, ptr %6, align 8, !tbaa !7
  %117 = getelementptr inbounds nuw %struct._lv_display_t, ptr %116, i32 0, i32 23
  %118 = load i32, ptr %12, align 4, !tbaa !3
  %119 = load i32, ptr %13, align 4, !tbaa !3
  %120 = load i32, ptr %11, align 4, !tbaa !3
  %121 = load i32, ptr %14, align 4, !tbaa !3
  %122 = load ptr, ptr %7, align 8, !tbaa !7
  %123 = load i32, ptr %9, align 4, !tbaa !3
  %124 = call i32 @lv_draw_buf_init(ptr noundef %117, i32 noundef %118, i32 noundef %119, i32 noundef %120, i32 noundef %121, ptr noundef %122, i32 noundef %123)
  %125 = load ptr, ptr %6, align 8, !tbaa !7
  %126 = getelementptr inbounds nuw %struct._lv_display_t, ptr %125, i32 0, i32 24
  %127 = load i32, ptr %12, align 4, !tbaa !3
  %128 = load i32, ptr %13, align 4, !tbaa !3
  %129 = load i32, ptr %11, align 4, !tbaa !3
  %130 = load i32, ptr %14, align 4, !tbaa !3
  %131 = load ptr, ptr %8, align 8, !tbaa !7
  %132 = load i32, ptr %9, align 4, !tbaa !3
  %133 = call i32 @lv_draw_buf_init(ptr noundef %126, i32 noundef %127, i32 noundef %128, i32 noundef %129, i32 noundef %130, ptr noundef %131, i32 noundef %132)
  %134 = load ptr, ptr %6, align 8, !tbaa !7
  %135 = load ptr, ptr %6, align 8, !tbaa !7
  %136 = getelementptr inbounds nuw %struct._lv_display_t, ptr %135, i32 0, i32 23
  %137 = load ptr, ptr %8, align 8, !tbaa !7
  %138 = icmp ne ptr %137, null
  br i1 %138, label %139, label %142

139:                                              ; preds = %115
  %140 = load ptr, ptr %6, align 8, !tbaa !7
  %141 = getelementptr inbounds nuw %struct._lv_display_t, ptr %140, i32 0, i32 24
  br label %143

142:                                              ; preds = %115
  br label %143

143:                                              ; preds = %142, %139
  %144 = phi ptr [ %141, %139 ], [ null, %142 ]
  call void @lv_display_set_draw_buffers(ptr noundef %134, ptr noundef %136, ptr noundef %144)
  %145 = load ptr, ptr %6, align 8, !tbaa !7
  %146 = load i32, ptr %10, align 4, !tbaa !3
  call void @lv_display_set_render_mode(ptr noundef %145, i32 noundef %146)
  call void @llvm.lifetime.end.p0(i64 4, ptr %14) #5
  call void @llvm.lifetime.end.p0(i64 4, ptr %13) #5
  call void @llvm.lifetime.end.p0(i64 4, ptr %12) #5
  call void @llvm.lifetime.end.p0(i64 4, ptr %11) #5
  ret void
}