; Function Attrs: nounwind uwtable
define void @lv_display_set_buffers(ptr noundef %0, ptr noundef %1, ptr noundef %2, i32 noundef %3, i32 noundef %4) local_unnamed_addr #0 {
  %.not = icmp eq ptr %1, null
  br i1 %.not, label %.preheader, label %6

.preheader:                                       ; preds = %5, %.preheader
  br label %.preheader

6:                                                ; preds = %5
  %7 = icmp eq ptr %0, null
  br i1 %7, label %8, label %.thread.i50

8:                                                ; preds = %6
  %9 = load ptr, ptr getelementptr inbounds nuw (i8, ptr @lv_global, i64 40), align 8, !tbaa !33
  %10 = icmp eq ptr %9, null
  br i1 %10, label %.preheader83.preheader, label %.thread.i50

.thread.i50:                                      ; preds = %8, %6
  %.08.i = phi ptr [ %0, %6 ], [ %9, %8 ]
  %.03.i58.in = getelementptr inbounds nuw i8, ptr %.08.i, i64 92
  %.03.i58 = load i32, ptr %.03.i58.in, align 4, !tbaa !22
  %11 = getelementptr inbounds nuw i8, ptr %.08.i, i64 888
  %12 = load i8, ptr %11, align 8
  %13 = and i8 %12, 7
  switch i8 %13, label %lv_display_get_horizontal_resolution.exit [
    i8 1, label %14
    i8 3, label %14
  ]

14:                                               ; preds = %.thread.i50, %.thread.i50
  %15 = getelementptr inbounds nuw i8, ptr %.08.i, i64 4
  br label %lv_display_get_horizontal_resolution.exit

lv_display_get_horizontal_resolution.exit:        ; preds = %.thread.i50, %14
  %.05.i.in = phi ptr [ %15, %14 ], [ %.08.i, %.thread.i50 ]
  %.05.i = load i32, ptr %.05.i.in, align 4, !tbaa !60
  br i1 %7, label %16, label %.thread.i51

16:                                               ; preds = %lv_display_get_horizontal_resolution.exit
  %.pr = load ptr, ptr getelementptr inbounds nuw (i8, ptr @lv_global, i64 40), align 8, !tbaa !33
  %17 = icmp eq ptr %.pr, null
  br i1 %17, label %.preheader83.preheader, label %.thread.i51

.thread.i51:                                      ; preds = %16, %lv_display_get_horizontal_resolution.exit
  %.08.i52 = phi ptr [ %.pr, %16 ], [ %0, %lv_display_get_horizontal_resolution.exit ]
  %18 = getelementptr inbounds nuw i8, ptr %.08.i52, i64 888
  %19 = load i8, ptr %18, align 8
  %20 = and i8 %19, 7
  switch i8 %20, label %21 [
    i8 1, label %lv_display_get_vertical_resolution.exit
    i8 3, label %lv_display_get_vertical_resolution.exit
  ]

21:                                               ; preds = %.thread.i51
  %22 = getelementptr inbounds nuw i8, ptr %.08.i52, i64 4
  br label %lv_display_get_vertical_resolution.exit

lv_display_get_vertical_resolution.exit:          ; preds = %.thread.i51, %.thread.i51, %21
  %.05.i53.in = phi ptr [ %22, %21 ], [ %.08.i52, %.thread.i51 ], [ %.08.i52, %.thread.i51 ]
  %.05.i53 = load i32, ptr %.05.i53.in, align 4, !tbaa !60
  %23 = icmp ne i32 %.05.i, 0
  %24 = icmp ne i32 %.05.i53, 0
  %or.cond = select i1 %23, i1 %24, i1 false
  br i1 %or.cond, label %25, label %.preheader83.preheader

.preheader83.preheader:                           ; preds = %16, %8, %lv_display_get_vertical_resolution.exit
  br label %.preheader83

.preheader83:                                     ; preds = %.preheader83.preheader, %.preheader83
  br label %.preheader83

25:                                               ; preds = %lv_display_get_vertical_resolution.exit
  %26 = tail call ptr @lv_draw_buf_align(ptr noundef nonnull %1, i32 noundef %.03.i58) #13
  %27 = icmp eq ptr %1, %26
  br i1 %27, label %28, label %.preheader82

.preheader82:                                     ; preds = %25, %.preheader82
  br label %.preheader82

28:                                               ; preds = %25
  %29 = icmp eq ptr %2, null
  br i1 %29, label %33, label %30

30:                                               ; preds = %28
  %31 = tail call ptr @lv_draw_buf_align(ptr noundef nonnull %2, i32 noundef %.03.i58) #13
  %32 = icmp eq ptr %2, %31
  br i1 %32, label %33, label %.preheader81

.preheader81:                                     ; preds = %30, %.preheader81
  br label %.preheader81

33:                                               ; preds = %30, %28
  %34 = tail call i32 @lv_draw_buf_width_to_stride(i32 noundef %.05.i, i32 noundef %.03.i58) #13
  %35 = icmp eq i32 %4, 0
  br i1 %35, label %36, label %38

36:                                               ; preds = %33
  %37 = udiv i32 %3, %34
  %.not48 = icmp ugt i32 %34, %3
  br i1 %.not48, label %.preheader79, label %40

.preheader79:                                     ; preds = %36, %.preheader79
  br label %.preheader79

38:                                               ; preds = %33
  %39 = mul i32 %34, %.05.i53
  %.not47 = icmp ugt i32 %39, %3
  br i1 %.not47, label %.preheader80, label %40

.preheader80:                                     ; preds = %38, %.preheader80
  br label %.preheader80

40:                                               ; preds = %38, %36
  %.0 = phi i32 [ %37, %36 ], [ %.05.i53, %38 ]
  %41 = getelementptr inbounds nuw i8, ptr %0, i64 672
  %42 = tail call i32 @lv_draw_buf_init(ptr noundef nonnull %41, i32 noundef %.05.i, i32 noundef %.0, i32 noundef %.03.i58, i32 noundef %34, ptr noundef nonnull %1, i32 noundef %3) #13
  %43 = getelementptr inbounds nuw i8, ptr %0, i64 712
  %44 = tail call i32 @lv_draw_buf_init(ptr noundef nonnull %43, i32 noundef %.05.i, i32 noundef %.0, i32 noundef %.03.i58, i32 noundef %34, ptr noundef %2, i32 noundef %3) #13
  %45 = select i1 %29, ptr null, ptr %43
  br i1 %7, label %46, label %.thread.i55

46:                                               ; preds = %40
  %47 = load ptr, ptr getelementptr inbounds nuw (i8, ptr @lv_global, i64 40), align 8, !tbaa !33
  %48 = icmp eq ptr %47, null
  br i1 %48, label %lv_display_set_render_mode.exit, label %.thread.i55

.thread.i55:                                      ; preds = %46, %40
  %.sink90 = phi ptr [ %0, %40 ], [ %47, %46 ]
  %49 = getelementptr inbounds nuw i8, ptr %.sink90, i64 32
  store ptr %41, ptr %49, align 8, !tbaa !63
  %50 = getelementptr inbounds nuw i8, ptr %.sink90, i64 40
  store ptr %45, ptr %50, align 8, !tbaa !64
  %51 = getelementptr inbounds nuw i8, ptr %.sink90, i64 48
  store ptr %41, ptr %51, align 8, !tbaa !65
  %52 = getelementptr inbounds nuw i8, ptr %.sink90, i64 84
  store i32 %4, ptr %52, align 4, !tbaa !66
  br label %lv_display_set_render_mode.exit

lv_display_set_render_mode.exit:                  ; preds = %46, %.thread.i55
  ret void
}